(dp0
S'fathmm-MKL_coding_pred'
p1
(dp2
V.
p3
(dp4
S'MetaSVM_pred'
p5
(dp6
g3
(dp7
S'MetaLR_pred'
p8
(dp9
g3
S'no'
p10
sssssVD
p11
(dp12
g5
(dp13
g3
(dp14
g8
(dp15
g3
S'yes'
p16
sssVT
p17
(dp18
g8
(dp19
g17
g16
sg11
g16
sssg11
g16
sssVN
p20
(dp21
g5
(dp22
g3
g16
sg17
(dp23
g8
(dp24
g17
g10
sssg11
g16
ssss.